target datalayout = "e-m:e-p270:32:32-p271:32:32-p272:64:64-i64:64-i128:128-f80:128-n8:16:32:64-S128"
target triple = "x86_64-pc-linux-gnu"

%"struct.(anonymous namespace)::FoldingSetNodeIDBuilder" = type { ptr }
%"class.llvm::itanium_demangle::Node.base" = type <{ ptr, i8, i16 }>
%"struct.(anonymous namespace)::ProfileNode" = type { ptr }
%"struct.(anonymous namespace)::ProfileSpecificNode.53" = type { ptr }
%"class.llvm::itanium_demangle::BitIntType" = type <{ %"class.llvm::itanium_demangle::Node.base", [5 x i8], ptr, i8, [7 x i8] }>

; Function Attrs: mustprogress nounwind uwtable
define linkonce_odr hidden void @_ZN4llvm16FoldingSetNodeID10AddIntegerEm(ptr noundef nonnull align 8 dereferenceable(144) %0, i64 noundef %1) #0 comdat align 2 {
  %3 = alloca ptr, align 8
  %4 = alloca i64, align 8
  store ptr %0, ptr %3, align 8
  store i64 %1, ptr %4, align 8
  %5 = load ptr, ptr %3, align 8
  %6 = load i64, ptr %4, align 8
  call void @_ZN4llvm16FoldingSetNodeID10AddIntegerEy(ptr noundef nonnull align 8 dereferenceable(144) %5, i64 noundef %6)
  ret void
}

; Function Attrs: mustprogress nounwind uwtable
define linkonce_odr hidden void @_ZN4llvm16FoldingSetNodeID10AddPointerEPKv(ptr noundef nonnull align 8 dereferenceable(144) %0, ptr noundef %1) #0 comdat align 2 {
  %3 = alloca ptr, align 8
  %4 = alloca ptr, align 8
  store ptr %0, ptr %3, align 8
  store ptr %1, ptr %4, align 8
  %5 = load ptr, ptr %3, align 8
  %6 = load ptr, ptr %4, align 8
  %7 = ptrtoint ptr %6 to i64
  call void @_ZN4llvm16FoldingSetNodeID10AddIntegerEm(ptr noundef nonnull align 8 dereferenceable(144) %5, i64 noundef %7)
  ret void
}

; Function Attrs: mustprogress nounwind uwtable
define internal void @_ZN12_GLOBAL__N_123FoldingSetNodeIDBuilderclIbEENSt9enable_ifIXoosr3stdE13is_integral_vIT_Esr3stdE9is_enum_vIS3_EEvE4typeES3_(ptr noundef nonnull align 8 dereferenceable(8) %0, i1 noundef zeroext %1) #0 align 2 {
  %3 = alloca ptr, align 8
  %4 = alloca i8, align 1
  store ptr %0, ptr %3, align 8
  %5 = zext i1 %1 to i8
  store i8 %5, ptr %4, align 1
  %6 = load ptr, ptr %3, align 8
  %7 = getelementptr inbounds nuw %"struct.(anonymous namespace)::FoldingSetNodeIDBuilder", ptr %6, i32 0, i32 0
  %8 = load ptr, ptr %7, align 8
  %9 = load i8, ptr %4, align 1
  %10 = trunc i8 %9 to i1
  %11 = zext i1 %10 to i64
  call void @_ZN4llvm16FoldingSetNodeID10AddIntegerEy(ptr noundef nonnull align 8 dereferenceable(144) %8, i64 noundef %11)
  ret void
}

; Function Attrs: mustprogress nounwind uwtable
define internal void @_ZN12_GLOBAL__N_123FoldingSetNodeIDBuilderclEPKN4llvm16itanium_demangle4NodeE(ptr noundef nonnull align 8 dereferenceable(8) %0, ptr noundef %1) #0 align 2 {
  %3 = alloca ptr, align 8
  %4 = alloca ptr, align 8
  store ptr %0, ptr %3, align 8
  store ptr %1, ptr %4, align 8
  %5 = load ptr, ptr %3, align 8
  %6 = getelementptr inbounds nuw %"struct.(anonymous namespace)::FoldingSetNodeIDBuilder", ptr %5, i32 0, i32 0
  %7 = load ptr, ptr %6, align 8
  %8 = load ptr, ptr %4, align 8
  call void @_ZN4llvm16FoldingSetNodeID10AddPointerEPKv(ptr noundef nonnull align 8 dereferenceable(144) %7, ptr noundef %8)
  ret void
}

; Function Attrs: mustprogress nounwind uwtable
define internal void @_ZN12_GLOBAL__N_123FoldingSetNodeIDBuilderclIN4llvm16itanium_demangle4Node4KindEEENSt9enable_ifIXoosr3stdE13is_integral_vIT_Esr3stdE9is_enum_vIS7_EEvE4typeES7_(ptr noundef nonnull align 8 dereferenceable(8) %0, i8 noundef zeroext %1) #0 align 2 {
  %3 = alloca ptr, align 8
  %4 = alloca i8, align 1
  store ptr %0, ptr %3, align 8
  store i8 %1, ptr %4, align 1
  %5 = load ptr, ptr %3, align 8
  %6 = getelementptr inbounds nuw %"struct.(anonymous namespace)::FoldingSetNodeIDBuilder", ptr %5, i32 0, i32 0
  %7 = load ptr, ptr %6, align 8
  %8 = load i8, ptr %4, align 1
  %9 = zext i8 %8 to i64
  call void @_ZN4llvm16FoldingSetNodeID10AddIntegerEy(ptr noundef nonnull align 8 dereferenceable(144) %7, i64 noundef %9)
  ret void
}

; Function Attrs: mustprogress nounwind uwtable
define internal void @_ZN12_GLOBAL__N_111profileCtorIJPKN4llvm16itanium_demangle4NodeEbEEEvRNS1_16FoldingSetNodeIDENS3_4KindEDpT_(ptr noundef nonnull align 8 dereferenceable(144) %0, i8 noundef zeroext %1, ptr noundef %2, i1 noundef zeroext %3) #0 {
  %5 = alloca ptr, align 8
  %6 = alloca i8, align 1
  %7 = alloca ptr, align 8
  %8 = alloca i8, align 1
  %9 = alloca %"struct.(anonymous namespace)::FoldingSetNodeIDBuilder", align 8
  %10 = alloca [3 x i32], align 4
  store ptr %0, ptr %5, align 8
  store i8 %1, ptr %6, align 1
  store ptr %2, ptr %7, align 8
  %11 = zext i1 %3 to i8
  store i8 %11, ptr %8, align 1
  %12 = getelementptr inbounds nuw %"struct.(anonymous namespace)::FoldingSetNodeIDBuilder", ptr %9, i32 0, i32 0
  %13 = load ptr, ptr %5, align 8
  store ptr %13, ptr %12, align 8
  %14 = load i8, ptr %6, align 1
  call void @_ZN12_GLOBAL__N_123FoldingSetNodeIDBuilderclIN4llvm16itanium_demangle4Node4KindEEENSt9enable_ifIXoosr3stdE13is_integral_vIT_Esr3stdE9is_enum_vIS7_EEvE4typeES7_(ptr noundef nonnull align 8 dereferenceable(8) %9, i8 noundef zeroext %14)
  %15 = load ptr, ptr %7, align 8
  call void @_ZN12_GLOBAL__N_123FoldingSetNodeIDBuilderclEPKN4llvm16itanium_demangle4NodeE(ptr noundef nonnull align 8 dereferenceable(8) %9, ptr noundef %15)
  store i32 0, ptr %10, align 4
  %16 = getelementptr inbounds i32, ptr %10, i64 1
  %17 = load i8, ptr %8, align 1
  %18 = trunc i8 %17 to i1
  call void @_ZN12_GLOBAL__N_123FoldingSetNodeIDBuilderclIbEENSt9enable_ifIXoosr3stdE13is_integral_vIT_Esr3stdE9is_enum_vIS3_EEvE4typeES3_(ptr noundef nonnull align 8 dereferenceable(8) %9, i1 noundef zeroext %18)
  store i32 0, ptr %16, align 4
  %19 = getelementptr inbounds i32, ptr %10, i64 2
  store i32 0, ptr %19, align 4
  ret void
}

; Function Attrs: mustprogress nounwind uwtable
define internal void @_ZN12_GLOBAL__N_119ProfileSpecificNodeIN4llvm16itanium_demangle10BitIntTypeEEclIJPKNS2_4NodeEbEEEvDpT_(ptr noundef nonnull align 8 dereferenceable(8) %0, ptr noundef %1, i1 noundef zeroext %2) #0 align 2 {
  %4 = alloca ptr, align 8
  %5 = alloca ptr, align 8
  %6 = alloca i8, align 1
  store ptr %0, ptr %4, align 8
  store ptr %1, ptr %5, align 8
  %7 = zext i1 %2 to i8
  store i8 %7, ptr %6, align 1
  %8 = load ptr, ptr %4, align 8
  %9 = getelementptr inbounds nuw %"struct.(anonymous namespace)::ProfileSpecificNode.53", ptr %8, i32 0, i32 0
  %10 = load ptr, ptr %9, align 8
  %11 = load ptr, ptr %5, align 8
  %12 = load i8, ptr %6, align 1
  %13 = trunc i8 %12 to i1
  call void @_ZN12_GLOBAL__N_111profileCtorIJPKN4llvm16itanium_demangle4NodeEbEEEvRNS1_16FoldingSetNodeIDENS3_4KindEDpT_(ptr noundef nonnull align 8 dereferenceable(144) %10, i8 noundef zeroext 32, ptr noundef %11, i1 noundef zeroext %13)
  ret void
}

; Function Attrs: mustprogress nounwind uwtable
define internal void @_ZNK4llvm16itanium_demangle10BitIntType5matchIN12_GLOBAL__N_119ProfileSpecificNodeIS1_EEEEvT_(ptr noundef nonnull align 8 dereferenceable(32) %0, ptr %1) #0 align 2 {
  %3 = alloca %"struct.(anonymous namespace)::ProfileSpecificNode.53", align 8
  %4 = alloca ptr, align 8
  %5 = getelementptr inbounds nuw %"struct.(anonymous namespace)::ProfileSpecificNode.53", ptr %3, i32 0, i32 0
  store ptr %1, ptr %5, align 8
  store ptr %0, ptr %4, align 8
  %6 = load ptr, ptr %4, align 8
  %7 = getelementptr inbounds nuw %"class.llvm::itanium_demangle::BitIntType", ptr %6, i32 0, i32 2
  %8 = load ptr, ptr %7, align 8
  %9 = getelementptr inbounds nuw %"class.llvm::itanium_demangle::BitIntType", ptr %6, i32 0, i32 3
  %10 = load i8, ptr %9, align 8
  %11 = trunc i8 %10 to i1
  call void @_ZN12_GLOBAL__N_119ProfileSpecificNodeIN4llvm16itanium_demangle10BitIntTypeEEclIJPKNS2_4NodeEbEEEvDpT_(ptr noundef nonnull align 8 dereferenceable(8) %3, ptr noundef %8, i1 noundef zeroext %11)
  ret void
}

; Function Attrs: mustprogress nounwind uwtable
define internal void @_ZN12_GLOBAL__N_111ProfileNodeclIN4llvm16itanium_demangle10BitIntTypeEEEvPKT_(ptr noundef nonnull align 8 dereferenceable(8) %0, ptr noundef %1) #0 align 2 {
  %3 = alloca ptr, align 8
  %4 = alloca ptr, align 8
  %5 = alloca %"struct.(anonymous namespace)::ProfileSpecificNode.53", align 8
  store ptr %0, ptr %3, align 8
  store ptr %1, ptr %4, align 8
  %6 = load ptr, ptr %3, align 8
  %7 = load ptr, ptr %4, align 8
  %8 = getelementptr inbounds nuw %"struct.(anonymous namespace)::ProfileSpecificNode.53", ptr %5, i32 0, i32 0
  %9 = getelementptr inbounds nuw %"struct.(anonymous namespace)::ProfileNode", ptr %6, i32 0, i32 0
  %10 = load ptr, ptr %9, align 8
  store ptr %10, ptr %8, align 8
  %11 = getelementptr inbounds nuw %"struct.(anonymous namespace)::ProfileSpecificNode.53", ptr %5, i32 0, i32 0
  %12 = load ptr, ptr %11, align 8
  call void @_ZNK4llvm16itanium_demangle10BitIntType5matchIN12_GLOBAL__N_119ProfileSpecificNodeIS1_EEEEvT_(ptr noundef nonnull align 8 dereferenceable(32) %7, ptr %12)
  ret void
}