; Function Attrs: mustprogress nounwind uwtable
define internal fastcc void @_ZN12_GLOBAL__N_111ProfileNodeclIN4llvm16itanium_demangle10BitIntTypeEEEvPKT_(ptr nonnull %.0.val, ptr %.16.val, i8 %.24.val) unnamed_addr #0 align 2 {
  tail call void @_ZN4llvm16FoldingSetNodeID10AddIntegerEy(ptr noundef nonnull align 8 dereferenceable(144) %.0.val, i64 noundef 32)
  %1 = ptrtoint ptr %.16.val to i64
  tail call void @_ZN4llvm16FoldingSetNodeID10AddIntegerEy(ptr noundef nonnull align 8 dereferenceable(144) %.0.val, i64 noundef %1)
  %2 = and i8 %.24.val, 1
  %3 = zext nneg i8 %2 to i64
  tail call void @_ZN4llvm16FoldingSetNodeID10AddIntegerEy(ptr noundef nonnull align 8 dereferenceable(144) %.0.val, i64 noundef %3)
  ret void
}